((dp0
(I999
I999
tp1
F2.0234756937611107
s(dp2
I0
(dp3
(I140
I1
tp4
I2275
s(I147
I70
tp5
I3639
s(I171
I95
tp6
I4464
s(I189
I153
tp7
I3696
s(I150
I68
tp8
I3771
s(I109
I60
tp9
I3242
s(I151
I127
tp10
I3941
s(I71
I159
tp11
I5265
s(I182
I125
tp12
I4092
s(I113
I159
tp13
I4010
s(I97
I94
tp14
I3949
s(I166
I137
tp15
I5080
s(I157
I39
tp16
I3014
s(I184
I17
tp17
I2267
s(I147
I135
tp18
I4055
s(I77
I122
tp19
I6313
s(I101
I83
tp20
I3019
s(I109
I81
tp21
I3386
s(I74
I142
tp22
I4986
s(I108
I40
tp23
I3409
s(I65
I3
tp24
I4828
s(I161
I86
tp25
I2750
s(I27
I121
tp26
I6235
s(I133
I77
tp27
I4327
s(I162
I106
tp28
I4283
s(I172
I101
tp29
I4614
s(I167
I149
tp30
I4302
s(I12
I177
tp31
I5650
s(I65
I125
tp32
I6757
s(I74
I162
tp33
I4584
s(I27
I97
tp34
I6008
s(I29
I157
tp35
I6449
s(I13
I142
tp36
I6824
s(I42
I147
tp37
I5782
s(I177
I147
tp38
I4555
s(I96
I144
tp39
I5210
s(I104
I28
tp40
I2495
s(I1
I70
tp41
I4943
s(I68
I129
tp42
I5269
s(I168
I36
tp43
I3028
ssI90
(dp44
(I140
I1
tp45
I6847
s(I147
I70
tp46
I2885
s(I171
I95
tp47
I2407
s(I189
I153
tp48
I5007
s(I150
I68
tp49
I2888
s(I109
I60
tp50
I4557
s(I151
I127
tp51
I3999
s(I71
I159
tp52
I6115
s(I182
I125
tp53
I5840
s(I113
I159
tp54
I5206
s(I97
I94
tp55
I2386
s(I166
I137
tp56
I4858
s(I157
I39
tp57
I3966
s(I184
I17
tp58
I4446
s(I147
I135
tp59
I3354
s(I77
I122
tp60
I5182
s(I101
I83
tp61
I3362
s(I109
I81
tp62
I4878
s(I74
I142
tp63
I1876
s(I108
I40
tp64
I4292
s(I65
I3
tp65
I5923
s(I161
I86
tp66
I5382
s(I27
I121
tp67
I5243
s(I133
I77
tp68
I6652
s(I162
I106
tp69
I5561
s(I172
I101
tp70
I5444
s(I167
I149
tp71
I7375
s(I12
I177
tp72
I5070
s(I65
I125
tp73
I6833
s(I74
I162
tp74
I2441
s(I27
I97
tp75
I5202
s(I29
I157
tp76
I2544
s(I13
I142
tp77
I3160
s(I42
I147
tp78
I5739
s(I177
I147
tp79
I4778
s(I96
I144
tp80
I5009
s(I104
I28
tp81
I4155
s(I1
I70
tp82
I2184
s(I68
I129
tp83
I6055
s(I168
I36
tp84
I3558
ssI180
(dp85
(I140
I1
tp86
I6112
s(I147
I70
tp87
I6206
s(I171
I95
tp88
I6144
s(I189
I153
tp89
I3428
s(I150
I68
tp90
I6796
s(I109
I60
tp91
I5133
s(I151
I127
tp92
I4992
s(I71
I159
tp93
I2269
s(I182
I125
tp94
I5839
s(I113
I159
tp95
I3584
s(I97
I94
tp96
I5198
s(I166
I137
tp97
I4590
s(I157
I39
tp98
I6256
s(I184
I17
tp99
I7353
s(I147
I135
tp100
I4310
s(I77
I122
tp101
I3014
s(I101
I83
tp102
I5367
s(I109
I81
tp103
I4922
s(I74
I142
tp104
I2744
s(I108
I40
tp105
I6231
s(I65
I3
tp106
I3820
s(I161
I86
tp107
I6769
s(I27
I121
tp108
I3681
s(I133
I77
tp109
I6733
s(I162
I106
tp110
I4959
s(I172
I101
tp111
I6100
s(I167
I149
tp112
I4073
s(I12
I177
tp113
I3534
s(I65
I125
tp114
I2740
s(I74
I162
tp115
I2798
s(I27
I97
tp116
I4261
s(I29
I157
tp117
I1746
s(I13
I142
tp118
I3231
s(I42
I147
tp119
I3416
s(I177
I147
tp120
I4251
s(I96
I144
tp121
I4176
s(I104
I28
tp122
I5373
s(I1
I70
tp123
I4066
s(I68
I129
tp124
I2223
s(I168
I36
tp125
I5212
ssI270
(dp126
(I140
I1
tp127
I2216
s(I147
I70
tp128
I6142
s(I171
I95
tp129
I6605
s(I189
I153
tp130
I3470
s(I150
I68
tp131
I6795
s(I109
I60
tp132
I4277
s(I151
I127
tp133
I3884
s(I71
I159
tp134
I2856
s(I182
I125
tp135
I2156
s(I113
I159
tp136
I3419
s(I97
I94
tp137
I6816
s(I166
I137
tp138
I4970
s(I157
I39
tp139
I4469
s(I184
I17
tp140
I5694
s(I147
I135
tp141
I5491
s(I77
I122
tp142
I4514
s(I101
I83
tp143
I6318
s(I109
I81
tp144
I3376
s(I74
I142
tp145
I6995
s(I108
I40
tp146
I5881
s(I65
I3
tp147
I2782
s(I161
I86
tp148
I3388
s(I27
I121
tp149
I3441
s(I133
I77
tp150
I2785
s(I162
I106
tp151
I3653
s(I172
I101
tp152
I3167
s(I167
I149
tp153
I1976
s(I12
I177
tp154
I4087
s(I65
I125
tp155
I2109
s(I74
I162
tp156
I6713
s(I27
I97
tp157
I3310
s(I29
I157
tp158
I6249
s(I13
I142
tp159
I5013
s(I42
I147
tp160
I3451
s(I177
I147
tp161
I3952
s(I96
I144
tp162
I5079
s(I104
I28
tp163
I4468
s(I1
I70
tp164
I6414
s(I68
I129
tp165
I2455
s(I168
I36
tp166
I5017
sstp167
.